target datalayout = "e-m:e-p270:32:32-p271:32:32-p272:64:64-i64:64-i128:128-f80:128-n8:16:32:64-S128"
target triple = "x86_64-pc-linux-gnu"

; Function Attrs: inlinehint nounwind uwtable
define internal float @lerpf(float noundef %0, float noundef %1, float noundef %2) #10 {
  %4 = alloca float, align 4
  %5 = alloca float, align 4
  %6 = alloca float, align 4
  store float %0, ptr %4, align 4, !tbaa !67
  store float %1, ptr %5, align 4, !tbaa !67
  store float %2, ptr %6, align 4, !tbaa !67
  %7 = load float, ptr %4, align 4, !tbaa !67
  %8 = load float, ptr %5, align 4, !tbaa !67
  %9 = load float, ptr %4, align 4, !tbaa !67
  %10 = fsub nsz float %8, %9
  %11 = load float, ptr %6, align 4, !tbaa !67
  %12 = call nsz float @llvm.fmuladd.f32(float %10, float %11, float %7)
  ret float %12
}

; Function Attrs: nounwind uwtable
define internal void @pseudocolor_filter_11d(i32 noundef %0, i32 noundef %1, i32 noundef %2, ptr noundef %3, ptr noundef %4, ptr noundef %5, i64 noundef %6, i64 noundef %7, i64 noundef %8, ptr noundef %9, float noundef %10) #1 {
  %12 = alloca i32, align 4
  %13 = alloca i32, align 4
  %14 = alloca i32, align 4
  %15 = alloca ptr, align 8
  %16 = alloca ptr, align 8
  %17 = alloca ptr, align 8
  %18 = alloca i64, align 8
  %19 = alloca i64, align 8
  %20 = alloca i64, align 8
  %21 = alloca ptr, align 8
  %22 = alloca float, align 4
  %23 = alloca i32, align 4
  %24 = alloca i32, align 4
  %25 = alloca i32, align 4
  store i32 %0, ptr %12, align 4, !tbaa !24
  store i32 %1, ptr %13, align 4, !tbaa !24
  store i32 %2, ptr %14, align 4, !tbaa !24
  store ptr %3, ptr %15, align 8, !tbaa !29
  store ptr %4, ptr %16, align 8, !tbaa !29
  store ptr %5, ptr %17, align 8, !tbaa !29
  store i64 %6, ptr %18, align 8, !tbaa !91
  store i64 %7, ptr %19, align 8, !tbaa !91
  store i64 %8, ptr %20, align 8, !tbaa !91
  store ptr %9, ptr %21, align 8, !tbaa !96
  store float %10, ptr %22, align 4, !tbaa !67
  call void @llvm.lifetime.start.p0(i64 4, ptr %23) #11
  call void @llvm.lifetime.start.p0(i64 4, ptr %24) #11
  store i32 0, ptr %24, align 4, !tbaa !24
  br label %26

26:                                               ; preds = %96, %11
  %27 = load i32, ptr %24, align 4, !tbaa !24
  %28 = load i32, ptr %14, align 4, !tbaa !24
  %29 = icmp slt i32 %27, %28
  br i1 %29, label %30, label %99

30:                                               ; preds = %26
  store i32 0, ptr %23, align 4, !tbaa !24
  br label %31

31:                                               ; preds = %86, %30
  %32 = load i32, ptr %23, align 4, !tbaa !24
  %33 = load i32, ptr %13, align 4, !tbaa !24
  %34 = icmp slt i32 %32, %33
  br i1 %34, label %35, label %89

35:                                               ; preds = %31
  call void @llvm.lifetime.start.p0(i64 4, ptr %25) #11
  %36 = load ptr, ptr %21, align 8, !tbaa !96
  %37 = load ptr, ptr %15, align 8, !tbaa !29
  %38 = load i32, ptr %24, align 4, !tbaa !24
  %39 = ashr i32 %38, 1
  %40 = sext i32 %39 to i64
  %41 = load i64, ptr %18, align 8, !tbaa !91
  %42 = mul nsw i64 %40, %41
  %43 = load i32, ptr %23, align 4, !tbaa !24
  %44 = ashr i32 %43, 1
  %45 = sext i32 %44 to i64
  %46 = add nsw i64 %42, %45
  %47 = getelementptr inbounds i8, ptr %37, i64 %46
  %48 = load i8, ptr %47, align 1, !tbaa !82
  %49 = zext i8 %48 to i64
  %50 = getelementptr inbounds nuw float, ptr %36, i64 %49
  %51 = load float, ptr %50, align 4, !tbaa !67
  %52 = fptosi float %51 to i32
  store i32 %52, ptr %25, align 4, !tbaa !24
  %53 = load i32, ptr %25, align 4, !tbaa !24
  %54 = icmp sge i32 %53, 0
  br i1 %54, label %55, label %75

55:                                               ; preds = %35
  %56 = load i32, ptr %25, align 4, !tbaa !24
  %57 = load i32, ptr %12, align 4, !tbaa !24
  %58 = icmp sle i32 %56, %57
  br i1 %58, label %59, label %75

59:                                               ; preds = %55
  %60 = load ptr, ptr %16, align 8, !tbaa !29
  %61 = load i32, ptr %23, align 4, !tbaa !24
  %62 = sext i32 %61 to i64
  %63 = getelementptr inbounds i8, ptr %60, i64 %62
  %64 = load i8, ptr %63, align 1, !tbaa !82
  %65 = uitofp i8 %64 to float
  %66 = load i32, ptr %25, align 4, !tbaa !24
  %67 = sitofp i32 %66 to float
  %68 = load float, ptr %22, align 4, !tbaa !67
  %69 = call nsz float @lerpf(float noundef %65, float noundef %67, float noundef %68)
  %70 = fptoui float %69 to i8
  %71 = load ptr, ptr %17, align 8, !tbaa !29
  %72 = load i32, ptr %23, align 4, !tbaa !24
  %73 = sext i32 %72 to i64
  %74 = getelementptr inbounds i8, ptr %71, i64 %73
  store i8 %70, ptr %74, align 1, !tbaa !82
  br label %85

75:                                               ; preds = %55, %35
  %76 = load ptr, ptr %16, align 8, !tbaa !29
  %77 = load i32, ptr %23, align 4, !tbaa !24
  %78 = sext i32 %77 to i64
  %79 = getelementptr inbounds i8, ptr %76, i64 %78
  %80 = load i8, ptr %79, align 1, !tbaa !82
  %81 = load ptr, ptr %17, align 8, !tbaa !29
  %82 = load i32, ptr %23, align 4, !tbaa !24
  %83 = sext i32 %82 to i64
  %84 = getelementptr inbounds i8, ptr %81, i64 %83
  store i8 %80, ptr %84, align 1, !tbaa !82
  br label %85

85:                                               ; preds = %75, %59
  call void @llvm.lifetime.end.p0(i64 4, ptr %25) #11
  br label %86

86:                                               ; preds = %85
  %87 = load i32, ptr %23, align 4, !tbaa !24
  %88 = add nsw i32 %87, 1
  store i32 %88, ptr %23, align 4, !tbaa !24
  br label %31, !llvm.loop !102

89:                                               ; preds = %31
  %90 = load i64, ptr %19, align 8, !tbaa !91
  %91 = load ptr, ptr %16, align 8, !tbaa !29
  %92 = getelementptr inbounds i8, ptr %91, i64 %90
  store ptr %92, ptr %16, align 8, !tbaa !29
  %93 = load i64, ptr %20, align 8, !tbaa !91
  %94 = load ptr, ptr %17, align 8, !tbaa !29
  %95 = getelementptr inbounds i8, ptr %94, i64 %93
  store ptr %95, ptr %17, align 8, !tbaa !29
  br label %96

96:                                               ; preds = %89
  %97 = load i32, ptr %24, align 4, !tbaa !24
  %98 = add nsw i32 %97, 1
  store i32 %98, ptr %24, align 4, !tbaa !24
  br label %26, !llvm.loop !103

99:                                               ; preds = %26
  call void @llvm.lifetime.end.p0(i64 4, ptr %24) #11
  call void @llvm.lifetime.end.p0(i64 4, ptr %23) #11
  ret void
}