; Function Attrs: nofree norecurse nosync nounwind memory(argmem: readwrite) uwtable
define internal void @pseudocolor_filter_11d(i32 noundef %0, i32 noundef %1, i32 noundef %2, ptr noundef readonly captures(none) %3, ptr noundef readonly captures(none) %4, ptr noundef writeonly captures(none) %5, i64 noundef %6, i64 noundef %7, i64 noundef %8, ptr noundef readonly captures(none) %9, float noundef %10) #8 {
  %12 = icmp sgt i32 %2, 0
  %13 = icmp sgt i32 %1, 0
  %or.cond = and i1 %12, %13
  br i1 %or.cond, label %.preheader.us.preheader, label %._crit_edge35

.preheader.us.preheader:                          ; preds = %11
  %wide.trip.count = zext nneg i32 %1 to i64
  br label %.preheader.us

.preheader.us:                                    ; preds = %.preheader.us.preheader, %._crit_edge.us
  %.034.us = phi ptr [ %38, %._crit_edge.us ], [ %4, %.preheader.us.preheader ]
  %.02733.us = phi i32 [ %40, %._crit_edge.us ], [ 0, %.preheader.us.preheader ]
  %.02932.us = phi ptr [ %39, %._crit_edge.us ], [ %5, %.preheader.us.preheader ]
  %14 = lshr i32 %.02733.us, 1
  %15 = zext nneg i32 %14 to i64
  %16 = mul nsw i64 %6, %15
  %17 = getelementptr i8, ptr %3, i64 %16
  br label %18

18:                                               ; preds = %.preheader.us, %36
  %indvars.iv = phi i64 [ 0, %.preheader.us ], [ %indvars.iv.next, %36 ]
  %19 = lshr i64 %indvars.iv, 1
  %20 = and i64 %19, 2147483647
  %21 = getelementptr i8, ptr %17, i64 %20
  %22 = load i8, ptr %21, align 1, !tbaa !74
  %23 = zext i8 %22 to i64
  %24 = getelementptr inbounds nuw float, ptr %9, i64 %23
  %25 = load float, ptr %24, align 4, !tbaa !62
  %26 = fptosi float %25 to i32
  %27 = icmp slt i32 %26, 0
  %.not.us = icmp slt i32 %0, %26
  %or.cond.us = or i1 %27, %.not.us
  %28 = getelementptr inbounds nuw i8, ptr %.034.us, i64 %indvars.iv
  %29 = load i8, ptr %28, align 1, !tbaa !74
  br i1 %or.cond.us, label %36, label %30

30:                                               ; preds = %18
  %31 = uitofp i8 %29 to float
  %32 = uitofp nneg i32 %26 to float
  %33 = fsub nsz float %32, %31
  %34 = tail call nsz noundef float @llvm.fmuladd.f32(float %33, float %10, float %31)
  %35 = fptoui float %34 to i8
  br label %36

36:                                               ; preds = %18, %30
  %.sink = phi i8 [ %35, %30 ], [ %29, %18 ]
  %37 = getelementptr inbounds nuw i8, ptr %.02932.us, i64 %indvars.iv
  store i8 %.sink, ptr %37, align 1, !tbaa !74
  %indvars.iv.next = add nuw nsw i64 %indvars.iv, 1
  %exitcond.not = icmp eq i64 %indvars.iv.next, %wide.trip.count
  br i1 %exitcond.not, label %._crit_edge.us, label %18, !llvm.loop !87

._crit_edge.us:                                   ; preds = %36
  %38 = getelementptr inbounds i8, ptr %.034.us, i64 %7
  %39 = getelementptr inbounds i8, ptr %.02932.us, i64 %8
  %40 = add nuw nsw i32 %.02733.us, 1
  %exitcond38.not = icmp eq i32 %40, %2
  br i1 %exitcond38.not, label %._crit_edge35, label %.preheader.us, !llvm.loop !88

._crit_edge35:                                    ; preds = %._crit_edge.us, %11
  ret void
}